target datalayout = "e-m:e-p270:32:32-p271:32:32-p272:64:64-i64:64-i128:128-f80:128-n8:16:32:64-S128"
target triple = "x86_64-pc-linux-gnu"

%struct.SDL_Rect = type { i32, i32, i32, i32 }
%struct.SDL_Point = type { i32, i32 }
%struct.SDL_WindowData = type { ptr, i64, ptr, i64, i8, %struct.XShmSegmentInfo, ptr, ptr, ptr, i8, i32, i32, i32, i32, i8, i8, i8, i64, i32, i64, i8, %struct.SDL_Point, %struct.XConfigureEvent, %struct.XConfigureEvent, ptr, i64, i64, i64, i8, i64, ptr, i8, [4 x i64], %struct.SDL_Rect, i64, %struct._XSyncValue, i8, %struct.SDL_Rect, %struct.SDL_DisplayMode, i32, i32, i8, i8, i8, i8, i8, i8, i8, i8, i32, %struct.XPoint, ptr, ptr, i32, i32, i8 }
%struct.XShmSegmentInfo = type { i64, i32, ptr, i32 }
%struct.XConfigureEvent = type { i32, i64, i32, ptr, i64, i64, i32, i32, i32, i32, i32, i64, i32 }
%struct._XSyncValue = type { i32, i32 }
%struct.SDL_DisplayMode = type { i32, i32, i32, i32, float, float, i32, i32, ptr }
%struct.XPoint = type { i16, i16 }
%struct._XIMPreeditCaretCallbackStruct = type { i32, i32, i32 }

@.str = private unnamed_addr constant [1 x i8] zeroinitializer, align 1

; Function Attrs: nounwind uwtable
define hidden void @X11_ClearComposition(ptr noundef %0) #0 {
  %2 = alloca ptr, align 8
  store ptr %0, ptr %2, align 8
  %3 = load ptr, ptr %2, align 8
  %4 = getelementptr inbounds nuw %struct.SDL_WindowData, ptr %3, i32 0, i32 53
  %5 = load i32, ptr %4, align 8
  %6 = icmp sgt i32 %5, 0
  br i1 %6, label %7, label %14

7:                                                ; preds = %1
  %8 = load ptr, ptr %2, align 8
  %9 = getelementptr inbounds nuw %struct.SDL_WindowData, ptr %8, i32 0, i32 51
  %10 = load ptr, ptr %9, align 8
  %11 = getelementptr inbounds i8, ptr %10, i64 0
  store i8 0, ptr %11, align 1
  %12 = load ptr, ptr %2, align 8
  %13 = getelementptr inbounds nuw %struct.SDL_WindowData, ptr %12, i32 0, i32 53
  store i32 0, ptr %13, align 8
  br label %14

14:                                               ; preds = %7, %1
  %15 = load ptr, ptr %2, align 8
  %16 = getelementptr inbounds nuw %struct.SDL_WindowData, ptr %15, i32 0, i32 55
  %17 = load i8, ptr %16, align 8, !range !12, !noundef !13
  %18 = trunc i8 %17 to i1
  br i1 %18, label %19, label %22

19:                                               ; preds = %14
  call void @SDL_SendEditingText(ptr noundef @.str, i32 noundef 0, i32 noundef 0)
  %20 = load ptr, ptr %2, align 8
  %21 = getelementptr inbounds nuw %struct.SDL_WindowData, ptr %20, i32 0, i32 55
  store i8 0, ptr %21, align 8
  br label %22

22:                                               ; preds = %19, %14
  ret void
}

; Function Attrs: nounwind uwtable
define internal void @X11_SendEditingEvent(ptr noundef %0) #0 {
  %2 = alloca ptr, align 8
  %3 = alloca i8, align 1
  %4 = alloca i32, align 4
  %5 = alloca i32, align 4
  %6 = alloca i32, align 4
  store ptr %0, ptr %2, align 8
  %7 = load ptr, ptr %2, align 8
  %8 = getelementptr inbounds nuw %struct.SDL_WindowData, ptr %7, i32 0, i32 53
  %9 = load i32, ptr %8, align 8
  %10 = icmp eq i32 %9, 0
  br i1 %10, label %11, label %13

11:                                               ; preds = %1
  %12 = load ptr, ptr %2, align 8
  call void @X11_ClearComposition(ptr noundef %12)
  br label %86

13:                                               ; preds = %1
  call void @llvm.lifetime.start.p0(i64 1, ptr %3) #6
  store i8 0, ptr %3, align 1
  call void @llvm.lifetime.start.p0(i64 4, ptr %4) #6
  store i32 -1, ptr %4, align 4
  call void @llvm.lifetime.start.p0(i64 4, ptr %5) #6
  store i32 0, ptr %5, align 4
  call void @llvm.lifetime.start.p0(i64 4, ptr %6) #6
  store i32 0, ptr %6, align 4
  br label %14

14:                                               ; preds = %42, %13
  %15 = load i32, ptr %6, align 4
  %16 = load ptr, ptr %2, align 8
  %17 = getelementptr inbounds nuw %struct.SDL_WindowData, ptr %16, i32 0, i32 53
  %18 = load i32, ptr %17, align 8
  %19 = icmp slt i32 %15, %18
  br i1 %19, label %20, label %45

20:                                               ; preds = %14
  %21 = load ptr, ptr %2, align 8
  %22 = getelementptr inbounds nuw %struct.SDL_WindowData, ptr %21, i32 0, i32 52
  %23 = load ptr, ptr %22, align 8
  %24 = load i32, ptr %6, align 4
  %25 = sext i32 %24 to i64
  %26 = getelementptr inbounds i64, ptr %23, i64 %25
  %27 = load i64, ptr %26, align 8
  %28 = and i64 %27, 5
  %29 = icmp ne i64 %28, 0
  br i1 %29, label %30, label %36

30:                                               ; preds = %20
  %31 = load i32, ptr %4, align 4
  %32 = icmp slt i32 %31, 0
  br i1 %32, label %33, label %35

33:                                               ; preds = %30
  %34 = load i32, ptr %6, align 4
  store i32 %34, ptr %4, align 4
  store i8 1, ptr %3, align 1
  br label %35

35:                                               ; preds = %33, %30
  br label %41

36:                                               ; preds = %20
  %37 = load i8, ptr %3, align 1, !range !12, !noundef !13
  %38 = trunc i8 %37 to i1
  br i1 %38, label %39, label %40

39:                                               ; preds = %36
  br label %45

40:                                               ; preds = %36
  br label %41

41:                                               ; preds = %40, %35
  br label %42

42:                                               ; preds = %41
  %43 = load i32, ptr %6, align 4
  %44 = add nsw i32 %43, 1
  store i32 %44, ptr %6, align 4
  br label %14, !llvm.loop !20

45:                                               ; preds = %39, %14
  %46 = load i8, ptr %3, align 1, !range !12, !noundef !13
  %47 = trunc i8 %46 to i1
  br i1 %47, label %48, label %52

48:                                               ; preds = %45
  %49 = load i32, ptr %6, align 4
  %50 = load i32, ptr %4, align 4
  %51 = sub nsw i32 %49, %50
  store i32 %51, ptr %5, align 4
  br label %78

52:                                               ; preds = %45
  %53 = load ptr, ptr %2, align 8
  %54 = getelementptr inbounds nuw %struct.SDL_WindowData, ptr %53, i32 0, i32 54
  %55 = load i32, ptr %54, align 4
  %56 = icmp slt i32 %55, 0
  br i1 %56, label %57, label %58

57:                                               ; preds = %52
  br label %76

58:                                               ; preds = %52
  %59 = load ptr, ptr %2, align 8
  %60 = getelementptr inbounds nuw %struct.SDL_WindowData, ptr %59, i32 0, i32 54
  %61 = load i32, ptr %60, align 4
  %62 = load ptr, ptr %2, align 8
  %63 = getelementptr inbounds nuw %struct.SDL_WindowData, ptr %62, i32 0, i32 53
  %64 = load i32, ptr %63, align 8
  %65 = icmp sgt i32 %61, %64
  br i1 %65, label %66, label %70

66:                                               ; preds = %58
  %67 = load ptr, ptr %2, align 8
  %68 = getelementptr inbounds nuw %struct.SDL_WindowData, ptr %67, i32 0, i32 53
  %69 = load i32, ptr %68, align 8
  br label %74

70:                                               ; preds = %58
  %71 = load ptr, ptr %2, align 8
  %72 = getelementptr inbounds nuw %struct.SDL_WindowData, ptr %71, i32 0, i32 54
  %73 = load i32, ptr %72, align 4
  br label %74

74:                                               ; preds = %70, %66
  %75 = phi i32 [ %69, %66 ], [ %73, %70 ]
  br label %76

76:                                               ; preds = %74, %57
  %77 = phi i32 [ 0, %57 ], [ %75, %74 ]
  store i32 %77, ptr %4, align 4
  br label %78

78:                                               ; preds = %76, %48
  %79 = load ptr, ptr %2, align 8
  %80 = getelementptr inbounds nuw %struct.SDL_WindowData, ptr %79, i32 0, i32 51
  %81 = load ptr, ptr %80, align 8
  %82 = load i32, ptr %4, align 4
  %83 = load i32, ptr %5, align 4
  call void @SDL_SendEditingText(ptr noundef %81, i32 noundef %82, i32 noundef %83)
  %84 = load ptr, ptr %2, align 8
  %85 = getelementptr inbounds nuw %struct.SDL_WindowData, ptr %84, i32 0, i32 55
  store i8 1, ptr %85, align 8
  call void @llvm.lifetime.end.p0(i64 4, ptr %6) #6
  call void @llvm.lifetime.end.p0(i64 4, ptr %5) #6
  call void @llvm.lifetime.end.p0(i64 4, ptr %4) #6
  call void @llvm.lifetime.end.p0(i64 1, ptr %3) #6
  br label %86

86:                                               ; preds = %78, %11
  ret void
}

; Function Attrs: nounwind uwtable
define internal void @preedit_caret_callback(ptr noundef %0, ptr noundef %1, ptr noundef %2) #0 {
  %4 = alloca ptr, align 8
  %5 = alloca ptr, align 8
  %6 = alloca ptr, align 8
  %7 = alloca ptr, align 8
  store ptr %0, ptr %4, align 8
  store ptr %1, ptr %5, align 8
  store ptr %2, ptr %6, align 8
  call void @llvm.lifetime.start.p0(i64 8, ptr %7) #6
  %8 = load ptr, ptr %5, align 8
  store ptr %8, ptr %7, align 8
  %9 = load ptr, ptr %6, align 8
  %10 = getelementptr inbounds nuw %struct._XIMPreeditCaretCallbackStruct, ptr %9, i32 0, i32 1
  %11 = load i32, ptr %10, align 4
  switch i32 %11, label %28 [
    i32 10, label %12
    i32 11, label %29
  ]

12:                                               ; preds = %3
  %13 = load ptr, ptr %6, align 8
  %14 = getelementptr inbounds nuw %struct._XIMPreeditCaretCallbackStruct, ptr %13, i32 0, i32 0
  %15 = load i32, ptr %14, align 4
  %16 = load ptr, ptr %7, align 8
  %17 = getelementptr inbounds nuw %struct.SDL_WindowData, ptr %16, i32 0, i32 54
  %18 = load i32, ptr %17, align 4
  %19 = icmp ne i32 %15, %18
  br i1 %19, label %20, label %27

20:                                               ; preds = %12
  %21 = load ptr, ptr %6, align 8
  %22 = getelementptr inbounds nuw %struct._XIMPreeditCaretCallbackStruct, ptr %21, i32 0, i32 0
  %23 = load i32, ptr %22, align 4
  %24 = load ptr, ptr %7, align 8
  %25 = getelementptr inbounds nuw %struct.SDL_WindowData, ptr %24, i32 0, i32 54
  store i32 %23, ptr %25, align 4
  %26 = load ptr, ptr %7, align 8
  call void @X11_SendEditingEvent(ptr noundef %26)
  br label %27

27:                                               ; preds = %20, %12
  br label %29

28:                                               ; preds = %3
  br label %29

29:                                               ; preds = %28, %3, %27
  call void @llvm.lifetime.end.p0(i64 8, ptr %7) #6
  ret void
}