; Function Attrs: nounwind uwtable
define internal void @preedit_caret_callback(ptr readnone captures(none) %0, ptr noundef captures(none) %1, ptr noundef readonly captures(none) %2) #0 {
  %4 = getelementptr inbounds nuw i8, ptr %2, i64 4
  %5 = load i32, ptr %4, align 4
  %cond = icmp eq i32 %5, 10
  br i1 %cond, label %6, label %X11_SendEditingEvent.exit

6:                                                ; preds = %3
  %7 = load i32, ptr %2, align 4
  %8 = getelementptr inbounds nuw i8, ptr %1, i64 572
  %9 = load i32, ptr %8, align 4
  %.not = icmp eq i32 %7, %9
  br i1 %.not, label %X11_SendEditingEvent.exit, label %10

10:                                               ; preds = %6
  store i32 %7, ptr %8, align 4
  %11 = getelementptr inbounds nuw i8, ptr %1, i64 568
  %12 = load i32, ptr %11, align 8
  %13 = icmp eq i32 %12, 0
  br i1 %13, label %17, label %.preheader.i

.preheader.i:                                     ; preds = %10
  %14 = icmp sgt i32 %12, 0
  br i1 %14, label %.lr.ph.i, label %._crit_edge.thread.i

.lr.ph.i:                                         ; preds = %.preheader.i
  %15 = getelementptr inbounds nuw i8, ptr %1, i64 560
  %16 = load ptr, ptr %15, align 8
  %wide.trip.count.i = zext nneg i32 %12 to i64
  br label %22

17:                                               ; preds = %10
  %18 = getelementptr inbounds nuw i8, ptr %1, i64 576
  %19 = load i8, ptr %18, align 8, !range !15, !noundef !16
  %20 = trunc nuw i8 %19 to i1
  br i1 %20, label %21, label %X11_SendEditingEvent.exit

21:                                               ; preds = %17
  tail call void @SDL_SendEditingText(ptr noundef nonnull @.str, i32 noundef 0, i32 noundef 0) #9
  store i8 0, ptr %18, align 8
  br label %X11_SendEditingEvent.exit

22:                                               ; preds = %31, %.lr.ph.i
  %indvars.iv.i = phi i64 [ 0, %.lr.ph.i ], [ %indvars.iv.next.i, %31 ]
  %.02234.i = phi i32 [ -1, %.lr.ph.i ], [ %.1.i, %31 ]
  %.02333.i = phi i8 [ 0, %.lr.ph.i ], [ %.124.i, %31 ]
  %23 = getelementptr inbounds nuw i64, ptr %16, i64 %indvars.iv.i
  %24 = load i64, ptr %23, align 8
  %25 = and i64 %24, 5
  %.not.i = icmp eq i64 %25, 0
  br i1 %.not.i, label %29, label %26

26:                                               ; preds = %22
  %27 = icmp slt i32 %.02234.i, 0
  %spec.select.i = select i1 %27, i8 1, i8 %.02333.i
  %28 = trunc nuw nsw i64 %indvars.iv.i to i32
  %spec.select27.i = select i1 %27, i32 %28, i32 %.02234.i
  br label %31

29:                                               ; preds = %22
  %30 = trunc nuw i8 %.02333.i to i1
  br i1 %30, label %.thread.loopexit.i, label %31

31:                                               ; preds = %29, %26
  %.124.i = phi i8 [ 0, %29 ], [ %spec.select.i, %26 ]
  %.1.i = phi i32 [ %.02234.i, %29 ], [ %spec.select27.i, %26 ]
  %indvars.iv.next.i = add nuw nsw i64 %indvars.iv.i, 1
  %exitcond.not.i = icmp eq i64 %indvars.iv.next.i, %wide.trip.count.i
  br i1 %exitcond.not.i, label %._crit_edge.i, label %22, !llvm.loop !19

._crit_edge.i:                                    ; preds = %31
  %32 = trunc nuw i8 %.124.i to i1
  br i1 %32, label %.thread.i, label %._crit_edge.thread.i

.thread.loopexit.i:                               ; preds = %29
  %33 = trunc nuw nsw i64 %indvars.iv.i to i32
  br label %.thread.i

.thread.i:                                        ; preds = %.thread.loopexit.i, %._crit_edge.i
  %.02231.i = phi i32 [ %.1.i, %._crit_edge.i ], [ %.02234.i, %.thread.loopexit.i ]
  %.029.i = phi i32 [ %12, %._crit_edge.i ], [ %33, %.thread.loopexit.i ]
  %34 = sub nsw i32 %.029.i, %.02231.i
  br label %37

._crit_edge.thread.i:                             ; preds = %._crit_edge.i, %.preheader.i
  %35 = icmp slt i32 %7, 0
  br i1 %35, label %37, label %36

36:                                               ; preds = %._crit_edge.thread.i
  %..i = tail call i32 @llvm.smin.i32(i32 %7, i32 %12)
  br label %37

37:                                               ; preds = %36, %._crit_edge.thread.i, %.thread.i
  %.2.i = phi i32 [ %.02231.i, %.thread.i ], [ 0, %._crit_edge.thread.i ], [ %..i, %36 ]
  %.021.i = phi i32 [ %34, %.thread.i ], [ 0, %._crit_edge.thread.i ], [ 0, %36 ]
  %38 = getelementptr inbounds nuw i8, ptr %1, i64 552
  %39 = load ptr, ptr %38, align 8
  tail call void @SDL_SendEditingText(ptr noundef %39, i32 noundef %.2.i, i32 noundef %.021.i) #9
  %40 = getelementptr inbounds nuw i8, ptr %1, i64 576
  store i8 1, ptr %40, align 8
  br label %X11_SendEditingEvent.exit

X11_SendEditingEvent.exit:                        ; preds = %37, %21, %17, %3, %6
  ret void
}